target datalayout = "e-m:e-p270:32:32-p271:32:32-p272:64:64-i64:64-i128:128-f80:128-n8:16:32:64-S128"
target triple = "x86_64-pc-linux-gnu"

%struct._zval_struct = type { %union._zend_value, %union.anon.3, %union.anon.6 }
%union._zend_value = type { i64 }
%union.anon.3 = type { i32 }
%union.anon.6 = type { i32 }
%struct._zend_array = type { %struct._zend_refcounted_h, %union.anon.0, i32, %union.anon.1, i32, i32, i32, i32, i64, ptr }
%struct._zend_refcounted_h = type { i32, %union.anon }
%union.anon = type { i32 }
%union.anon.0 = type { i32 }
%union.anon.1 = type { ptr }
%struct._zend_executor_globals = type { %struct._zval_struct, %struct._zval_struct, [32 x ptr], ptr, ptr, %struct._zend_array, %struct._zend_array, ptr, i32, i8, %struct._zval_struct, i32, ptr, ptr, ptr, ptr, ptr, ptr, i64, ptr, ptr, i32, ptr, i32, i64, i32, i32, i32, i8, i8, %struct.zend_atomic_bool_s, %struct.zend_atomic_bool_s, ptr, i64, ptr, ptr, %struct._zend_array, %struct._zend_array, i32, i8, %struct._zval_struct, %struct._zval_struct, %struct._zend_stack, %struct._zend_stack, %struct._zend_stack, ptr, i32, i32, i64, ptr, ptr, ptr, %struct._zend_objects_store, %struct._zend_lazy_objects_store, ptr, ptr, ptr, [3 x %struct._zend_op], ptr, i8, i8, i64, i32, i32, ptr, [16 x %struct._HashTableIterator], ptr, %union._zend_function, %struct._zend_op, %struct._zend_array, i64, %struct.zend_get_gc_buffer, ptr, ptr, ptr, i64, i8, i32, ptr, ptr, i64, %struct._zend_call_stack, i64, i64, %struct._zend_strtod_state, [6 x ptr] }
%struct.zend_atomic_bool_s = type { i8 }
%struct._zend_stack = type { i32, i32, i32, ptr }
%struct._zend_objects_store = type { ptr, i32, i32, i32 }
%struct._zend_lazy_objects_store = type { %struct._zend_array }
%struct._HashTableIterator = type { ptr, i32, i32 }
%union._zend_function = type { %struct._zend_op_array }
%struct._zend_op_array = type { i8, [3 x i8], i32, ptr, ptr, ptr, i32, i32, ptr, ptr, ptr, ptr, i32, ptr, i32, i32, i32, ptr, ptr, ptr, ptr, ptr, i32, i32, ptr, ptr, ptr, i32, i32, i32, i32, ptr, ptr, [6 x ptr] }
%struct._zend_op = type { ptr, %union._znode_op, %union._znode_op, %union._znode_op, i32, i32, i8, i8, i8, i8 }
%union._znode_op = type { i32 }
%struct.zend_get_gc_buffer = type { ptr, ptr, ptr }
%struct._zend_call_stack = type { ptr, i64 }
%struct._zend_strtod_state = type { [8 x ptr], ptr, ptr }
%struct._pcre_cache_entry = type { ptr, ptr, i32, i32, i32, i32, i32 }

@executor_globals = external global %struct._zend_executor_globals, align 8

; Function Attrs: nounwind uwtable
define dso_local ptr @pcre_get_compiled_regex_cache(ptr noundef %0) #0 {
  %2 = alloca ptr, align 8
  store ptr %0, ptr %2, align 8, !tbaa !4
  %3 = load ptr, ptr %2, align 8, !tbaa !4
  %4 = call ptr @pcre_get_compiled_regex_cache_ex(ptr noundef %3, i1 noundef zeroext true)
  ret ptr %4
}

; Function Attrs: nounwind uwtable
define dso_local ptr @php_pcre_replace(ptr noundef %0, ptr noundef %1, ptr noundef %2, i64 noundef %3, ptr noundef %4, i64 noundef %5, ptr noundef %6) #0 {
  %8 = alloca ptr, align 8
  %9 = alloca ptr, align 8
  %10 = alloca ptr, align 8
  %11 = alloca ptr, align 8
  %12 = alloca i64, align 8
  %13 = alloca ptr, align 8
  %14 = alloca i64, align 8
  %15 = alloca ptr, align 8
  %16 = alloca ptr, align 8
  %17 = alloca ptr, align 8
  %18 = alloca i32, align 4
  store ptr %0, ptr %9, align 8, !tbaa !4
  store ptr %1, ptr %10, align 8, !tbaa !4
  store ptr %2, ptr %11, align 8, !tbaa !15
  store i64 %3, ptr %12, align 8, !tbaa !50
  store ptr %4, ptr %13, align 8, !tbaa !4
  store i64 %5, ptr %14, align 8, !tbaa !50
  store ptr %6, ptr %15, align 8, !tbaa !102
  call void @llvm.lifetime.start.p0(i64 8, ptr %16) #17
  call void @llvm.lifetime.start.p0(i64 8, ptr %17) #17
  %19 = load ptr, ptr getelementptr inbounds nuw (%struct._zend_executor_globals, ptr @executor_globals, i32 0, i32 54), align 8, !tbaa !77
  %20 = icmp ne ptr %19, null
  %21 = xor i1 %20, true
  %22 = xor i1 %21, true
  %23 = zext i1 %22 to i32
  %24 = sext i32 %23 to i64
  %25 = call i64 @llvm.expect.i64(i64 %24, i64 0)
  %26 = icmp ne i64 %25, 0
  br i1 %26, label %27, label %28

27:                                               ; preds = %7
  store ptr null, ptr %8, align 8
  store i32 1, ptr %18, align 4
  br label %51

28:                                               ; preds = %7
  %29 = load ptr, ptr %9, align 8, !tbaa !4
  %30 = call ptr @pcre_get_compiled_regex_cache(ptr noundef %29)
  store ptr %30, ptr %16, align 8, !tbaa !64
  %31 = icmp eq ptr %30, null
  br i1 %31, label %32, label %33

32:                                               ; preds = %28
  store ptr null, ptr %8, align 8
  store i32 1, ptr %18, align 4
  br label %51

33:                                               ; preds = %28
  %34 = load ptr, ptr %16, align 8, !tbaa !64
  %35 = getelementptr inbounds nuw %struct._pcre_cache_entry, ptr %34, i32 0, i32 6
  %36 = load i32, ptr %35, align 8, !tbaa !62
  %37 = add i32 %36, 1
  store i32 %37, ptr %35, align 8, !tbaa !62
  %38 = load ptr, ptr %16, align 8, !tbaa !64
  %39 = load ptr, ptr %10, align 8, !tbaa !4
  %40 = load ptr, ptr %11, align 8, !tbaa !15
  %41 = load i64, ptr %12, align 8, !tbaa !50
  %42 = load ptr, ptr %13, align 8, !tbaa !4
  %43 = load i64, ptr %14, align 8, !tbaa !50
  %44 = load ptr, ptr %15, align 8, !tbaa !102
  %45 = call ptr @php_pcre_replace_impl(ptr noundef %38, ptr noundef %39, ptr noundef %40, i64 noundef %41, ptr noundef %42, i64 noundef %43, ptr noundef %44)
  store ptr %45, ptr %17, align 8, !tbaa !4
  %46 = load ptr, ptr %16, align 8, !tbaa !64
  %47 = getelementptr inbounds nuw %struct._pcre_cache_entry, ptr %46, i32 0, i32 6
  %48 = load i32, ptr %47, align 8, !tbaa !62
  %49 = add i32 %48, -1
  store i32 %49, ptr %47, align 8, !tbaa !62
  %50 = load ptr, ptr %17, align 8, !tbaa !4
  store ptr %50, ptr %8, align 8
  store i32 1, ptr %18, align 4
  br label %51

51:                                               ; preds = %33, %32, %27
  call void @llvm.lifetime.end.p0(i64 8, ptr %17) #17
  call void @llvm.lifetime.end.p0(i64 8, ptr %16) #17
  %52 = load ptr, ptr %8, align 8
  ret ptr %52
}