; Function Attrs: nounwind uwtable
define dso_local ptr @php_pcre_replace(ptr noundef %0, ptr noundef captures(address_is_null, ret: address, provenance) %1, ptr noundef %2, i64 noundef %3, ptr noundef captures(address) %4, i64 noundef %5, ptr noundef captures(address_is_null) %6) local_unnamed_addr #0 {
  %8 = load ptr, ptr getelementptr inbounds nuw (i8, ptr @executor_globals, i64 960), align 8, !tbaa !68
  %.not = icmp eq ptr %8, null
  br i1 %.not, label %9, label %19, !prof !55

9:                                                ; preds = %7
  %10 = tail call ptr @pcre_get_compiled_regex_cache_ex(ptr noundef %0, i1 noundef zeroext true)
  %11 = icmp eq ptr %10, null
  br i1 %11, label %19, label %12

12:                                               ; preds = %9
  %13 = getelementptr inbounds nuw i8, ptr %10, i64 32
  %14 = load i32, ptr %13, align 8, !tbaa !63
  %15 = add i32 %14, 1
  store i32 %15, ptr %13, align 8, !tbaa !63
  %16 = tail call ptr @php_pcre_replace_impl(ptr noundef nonnull %10, ptr noundef %1, ptr noundef %2, i64 noundef %3, ptr noundef %4, i64 noundef %5, ptr noundef %6)
  %17 = load i32, ptr %13, align 8, !tbaa !63
  %18 = add i32 %17, -1
  store i32 %18, ptr %13, align 8, !tbaa !63
  br label %19

19:                                               ; preds = %9, %7, %12
  %.0 = phi ptr [ %16, %12 ], [ null, %7 ], [ null, %9 ]
  ret ptr %.0
}